; Function Attrs: mustprogress uwtable
define void @grpc_auth_context_release(ptr noundef %context) local_unnamed_addr #4 personality ptr @__gxx_personality_v0 {
entry:
  %0 = load atomic i8, ptr getelementptr inbounds (%"class.grpc_core::TraceFlag", ptr @grpc_api_trace, i64 0, i32 2, i32 0, i32 0) monotonic, align 8
  %1 = and i8 %0, 1
  %tobool.i.i.i.not = icmp eq i8 %1, 0
  br i1 %tobool.i.i.i.not, label %if.end, label %if.then

if.then:                                          ; preds = %entry
  tail call void (ptr, i32, i32, ptr, ...) @gpr_log(ptr noundef nonnull @.str, i32 noundef 95, i32 noundef 1, ptr noundef nonnull @.str.6, ptr noundef %context)
  br label %if.end

if.end:                                           ; preds = %if.then, %entry
  %cmp = icmp eq ptr %context, null
  br i1 %cmp, label %return, label %if.end2

if.end2:                                          ; preds = %if.end
  %2 = atomicrmw sub ptr %context, i64 1 acq_rel, align 8
  %cmp.i.i = icmp eq i64 %2, 1
  br i1 %cmp.i.i, label %if.then.i, label %return

if.then.i:                                        ; preds = %if.end2
  tail call void @_ZN17grpc_auth_contextD2Ev(ptr noundef nonnull align 8 dereferenceable(56) %context) #21
  tail call void @_ZdlPv(ptr noundef nonnull %context) #23
  br label %return

return:                                           ; preds = %if.then.i, %if.end2, %if.end
  ret void
}